; Function Attrs: mustprogress uwtable
define noundef double @_ZNK8QuantLib30CallableBondConstantVolatility14volatilityImplERKNS_4DateERKNS_6PeriodEd(ptr noundef nonnull align 8 dereferenceable(112) %this, ptr nocapture nonnull readnone align 8 %0, ptr nocapture nonnull readnone align 4 %1, double %2) unnamed_addr #7 align 2 {
entry:
  %volatility_ = getelementptr inbounds nuw i8, ptr %this, i64 72
  %call = tail call noundef nonnull align 8 dereferenceable(16) ptr @_ZNK8QuantLib6HandleINS_5QuoteEEptEv(ptr noundef nonnull align 8 dereferenceable(16) %volatility_)
  %3 = load ptr, ptr %call, align 8, !tbaa !45
  %cmp.not.i = icmp eq ptr %3, null
  br i1 %cmp.not.i, label %cond.false.i, label %_ZNK5boost10shared_ptrIN8QuantLib5QuoteEEptEv.exit, !prof !74

cond.false.i:                                     ; preds = %entry
  tail call void @_ZN5boost16assertion_failedEPKcS1_S1_l(ptr noundef nonnull @.str.7, ptr noundef nonnull @__PRETTY_FUNCTION__._ZNK5boost10shared_ptrIN8QuantLib5QuoteEEptEv, ptr noundef nonnull @.str.8, i64 noundef 784)
  %.pre.i = load ptr, ptr %call, align 8, !tbaa !45
  br label %_ZNK5boost10shared_ptrIN8QuantLib5QuoteEEptEv.exit

_ZNK5boost10shared_ptrIN8QuantLib5QuoteEEptEv.exit: ; preds = %entry, %cond.false.i
  %4 = phi ptr [ %3, %entry ], [ %.pre.i, %cond.false.i ]
  %vtable = load ptr, ptr %4, align 8, !tbaa !39
  %vfn = getelementptr inbounds i8, ptr %vtable, i64 16
  %5 = load ptr, ptr %vfn, align 8
  %call5 = tail call noundef double %5(ptr noundef nonnull align 8 dereferenceable(8) %4)
  ret double %call5
}